; ModuleID = '4/481.c'
source_filename = "4/481.c"
target datalayout = "e-m:e-p270:32:32-p271:32:32-p272:64:64-i64:64-f80:128-n8:16:32:64-S128"
target triple = "x86_64-pc-linux-gnu"

@.str = private unnamed_addr constant [5 x i8] c"%d%d\00", align 1
@.str.1 = private unnamed_addr constant [3 x i8] c"%d\00", align 1
@.str.2 = private unnamed_addr constant [4 x i8] c"%d\0A\00", align 1

; Function Attrs: noinline nounwind uwtable
define dso_local i32 @main() #0 {
  %1 = alloca i32, align 4
  %2 = alloca i32, align 4
  %3 = alloca i32, align 4
  %4 = alloca [100 x [100 x i32]], align 16
  %5 = alloca i32, align 4
  %6 = alloca i32, align 4
  %7 = alloca i32, align 4
  %8 = alloca i32, align 4
  %9 = alloca i32, align 4
  %10 = alloca i32, align 4
  %11 = alloca i32, align 4
  %12 = alloca i32, align 4
  %13 = alloca i32, align 4
  %14 = alloca i32, align 4
  %15 = alloca i32, align 4
  %16 = alloca i32, align 4
  store i32 0, i32* %1, align 4
  %17 = call i32 (i8*, ...) @__isoc99_scanf(i8* getelementptr inbounds ([5 x i8], [5 x i8]* @.str, i64 0, i64 0), i32* %2, i32* %3)
  store i32 0, i32* %8, align 4
  br label %18

18:                                               ; preds = %41, %0
  %19 = load i32, i32* %8, align 4
  %20 = load i32, i32* %2, align 4
  %21 = sub nsw i32 %20, 1
  %22 = icmp sle i32 %19, %21
  br i1 %22, label %23, label %44

23:                                               ; preds = %18
  store i32 0, i32* %9, align 4
  br label %24

24:                                               ; preds = %37, %23
  %25 = load i32, i32* %9, align 4
  %26 = load i32, i32* %3, align 4
  %27 = sub nsw i32 %26, 1
  %28 = icmp sle i32 %25, %27
  br i1 %28, label %29, label %40

29:                                               ; preds = %24
  %30 = load i32, i32* %8, align 4
  %31 = sext i32 %30 to i64
  %32 = getelementptr inbounds [100 x [100 x i32]], [100 x [100 x i32]]* %4, i64 0, i64 %31
  %33 = load i32, i32* %9, align 4
  %34 = sext i32 %33 to i64
  %35 = getelementptr inbounds [100 x i32], [100 x i32]* %32, i64 0, i64 %34
  %36 = call i32 (i8*, ...) @__isoc99_scanf(i8* getelementptr inbounds ([3 x i8], [3 x i8]* @.str.1, i64 0, i64 0), i32* %35)
  br label %37

37:                                               ; preds = %29
  %38 = load i32, i32* %9, align 4
  %39 = add nsw i32 %38, 1
  store i32 %39, i32* %9, align 4
  br label %24

40:                                               ; preds = %24
  br label %41

41:                                               ; preds = %40
  %42 = load i32, i32* %8, align 4
  %43 = add nsw i32 %42, 1
  store i32 %43, i32* %8, align 4
  br label %18

44:                                               ; preds = %18
  store i32 0, i32* %10, align 4
  br label %45

45:                                               ; preds = %83, %44
  %46 = load i32, i32* %10, align 4
  %47 = load i32, i32* %3, align 4
  %48 = sub nsw i32 %47, 1
  %49 = icmp sle i32 %46, %48
  br i1 %49, label %50, label %86

50:                                               ; preds = %45
  %51 = load i32, i32* %10, align 4
  store i32 %51, i32* %11, align 4
  store i32 0, i32* %12, align 4
  br label %52

52:                                               ; preds = %79, %50
  %53 = load i32, i32* %12, align 4
  %54 = load i32, i32* %2, align 4
  %55 = sub nsw i32 %54, 1
  %56 = icmp sle i32 %53, %55
  br i1 %56, label %57, label %60

57:                                               ; preds = %52
  %58 = load i32, i32* %11, align 4
  %59 = icmp sge i32 %58, 0
  br label %60

60:                                               ; preds = %57, %52
  %61 = phi i1 [ false, %52 ], [ %59, %57 ]
  br i1 %61, label %62, label %82

62:                                               ; preds = %60
  %63 = load i32, i32* %12, align 4
  %64 = sext i32 %63 to i64
  %65 = getelementptr inbounds [100 x [100 x i32]], [100 x [100 x i32]]* %4, i64 0, i64 %64
  %66 = load i32, i32* %11, align 4
  %67 = sext i32 %66 to i64
  %68 = getelementptr inbounds [100 x i32], [100 x i32]* %65, i64 0, i64 %67
  %69 = load i32, i32* %68, align 4
  %70 = call i32 (i8*, ...) @printf(i8* getelementptr inbounds ([4 x i8], [4 x i8]* @.str.2, i64 0, i64 0), i32 %69)
  br label %71

71:                                               ; preds = %62
  %72 = load i32, i32* %11, align 4
  %73 = add nsw i32 %72, -1
  store i32 %73, i32* %11, align 4
  %74 = icmp ne i32 %72, 0
  br i1 %74, label %75, label %79

75:                                               ; preds = %71
  %76 = load i32, i32* %12, align 4
  %77 = add nsw i32 %76, 1
  store i32 %77, i32* %12, align 4
  %78 = icmp ne i32 %76, 0
  br label %79

79:                                               ; preds = %75, %71
  %80 = phi i1 [ false, %71 ], [ %78, %75 ]
  %81 = zext i1 %80 to i32
  br label %52

82:                                               ; preds = %60
  store i32 0, i32* %7, align 4
  br label %83

83:                                               ; preds = %82
  %84 = load i32, i32* %10, align 4
  %85 = add nsw i32 %84, 1
  store i32 %85, i32* %10, align 4
  br label %45

86:                                               ; preds = %45
  store i32 1, i32* %13, align 4
  br label %87

87:                                               ; preds = %127, %86
  %88 = load i32, i32* %13, align 4
  %89 = load i32, i32* %2, align 4
  %90 = sub nsw i32 %89, 1
  %91 = icmp sle i32 %88, %90
  br i1 %91, label %92, label %130

92:                                               ; preds = %87
  %93 = load i32, i32* %13, align 4
  store i32 %93, i32* %14, align 4
  %94 = load i32, i32* %3, align 4
  %95 = sub nsw i32 %94, 1
  store i32 %95, i32* %15, align 4
  br label %96

96:                                               ; preds = %123, %92
  %97 = load i32, i32* %14, align 4
  %98 = load i32, i32* %2, align 4
  %99 = sub nsw i32 %98, 1
  %100 = icmp sle i32 %97, %99
  br i1 %100, label %101, label %104

101:                                              ; preds = %96
  %102 = load i32, i32* %15, align 4
  %103 = icmp sge i32 %102, 0
  br label %104

104:                                              ; preds = %101, %96
  %105 = phi i1 [ false, %96 ], [ %103, %101 ]
  br i1 %105, label %106, label %126

106:                                              ; preds = %104
  %107 = load i32, i32* %14, align 4
  %108 = sext i32 %107 to i64
  %109 = getelementptr inbounds [100 x [100 x i32]], [100 x [100 x i32]]* %4, i64 0, i64 %108
  %110 = load i32, i32* %15, align 4
  %111 = sext i32 %110 to i64
  %112 = getelementptr inbounds [100 x i32], [100 x i32]* %109, i64 0, i64 %111
  %113 = load i32, i32* %112, align 4
  %114 = call i32 (i8*, ...) @printf(i8* getelementptr inbounds ([4 x i8], [4 x i8]* @.str.2, i64 0, i64 0), i32 %113)
  br label %115

115:                                              ; preds = %106
  %116 = load i32, i32* %14, align 4
  %117 = add nsw i32 %116, 1
  store i32 %117, i32* %14, align 4
  %118 = icmp ne i32 %116, 0
  br i1 %118, label %119, label %123

119:                                              ; preds = %115
  %120 = load i32, i32* %15, align 4
  %121 = add nsw i32 %120, -1
  store i32 %121, i32* %15, align 4
  %122 = icmp ne i32 %120, 0
  br label %123

123:                                              ; preds = %119, %115
  %124 = phi i1 [ false, %115 ], [ %122, %119 ]
  %125 = zext i1 %124 to i32
  br label %96

126:                                              ; preds = %104
  br label %127

127:                                              ; preds = %126
  %128 = load i32, i32* %13, align 4
  %129 = add nsw i32 %128, 1
  store i32 %129, i32* %13, align 4
  br label %87

130:                                              ; preds = %87
  %131 = load i32, i32* %16, align 4
  %132 = call i32 (i8*, ...) @__isoc99_scanf(i8* getelementptr inbounds ([3 x i8], [3 x i8]* @.str.1, i64 0, i64 0), i32 %131)
  ret i32 0
}

declare dso_local i32 @__isoc99_scanf(i8*, ...) #1

declare dso_local i32 @printf(i8*, ...) #1


!llvm.module.flags = !{!0}
!llvm.ident = !{!1}

!0 = !{i32 1, !"wchar_size", i32 4}
!1 = !{!"clang version 10.0.0-4ubuntu1 "}
